#include <math.h>
#include <stdio.h>
#include <stdlib.h>
#include <string.h>
#include <iostream>
using namespace std;

int main()
{
	int a,b,c,d,e,s[6];//????
	for(a=1;a<=5;a++)
		for(b=1;b<=5;b++)
		{
			if(a==b)
				continue;
			for(c=1;c<=5;c++)
			{
				if(c==a||c==b)
					continue;
				for(d=1;d<=5;d++)
				{
					if(d==a||d==b||d==c)
						continue;
					for(e=1;e<=5;e++)
					{
						if(e==a||e==b||e==c||e==d)
							continue;
						s[a]=(e==1);
						s[b]=(b==2);
						s[c]=(a==5);
						s[d]=(c!=1);
						s[e]=(d==1);
				
						if((s[1]+s[2]==2)&&(s[3]+s[4]+s[5]==0)&&e!=2&&e!=3)
							cout<<a<<" "<<b<<" "<<c<<" "<<d<<" "<<e;
					
					}
				}
			}
		}

	return 0;
}